target datalayout = "e-m:e-p270:32:32-p271:32:32-p272:64:64-i64:64-i128:128-f80:128-n8:16:32:64-S128"
target triple = "x86_64-pc-linux-gnu"

; Function Attrs: nounwind uwtable
define dso_local i32 @bit_set_count_range(ptr noundef %0, i32 noundef %1, i32 noundef %2) #0 {
  %4 = alloca ptr, align 8
  %5 = alloca i32, align 4
  %6 = alloca i32, align 4
  %7 = alloca i32, align 4
  %8 = alloca i32, align 4
  %9 = alloca i64, align 8
  %10 = alloca i64, align 8
  %11 = alloca i64, align 8
  %12 = alloca i64, align 8
  store ptr %0, ptr %4, align 8
  store i32 %1, ptr %5, align 4
  store i32 %2, ptr %6, align 4
  call void @llvm.lifetime.start.p0(i64 4, ptr %7) #12
  store i32 0, ptr %7, align 4
  call void @llvm.lifetime.start.p0(i64 4, ptr %8) #12
  call void @llvm.lifetime.start.p0(i64 8, ptr %9) #12
  br label %13

13:                                               ; preds = %3
  br label %14

14:                                               ; preds = %13
  br label %15

15:                                               ; preds = %14
  br label %16

16:                                               ; preds = %15
  br label %17

17:                                               ; preds = %16
  br label %18

18:                                               ; preds = %17
  %19 = load i32, ptr %6, align 4
  %20 = sext i32 %19 to i64
  %21 = load ptr, ptr %4, align 8
  %22 = getelementptr inbounds i64, ptr %21, i64 1
  %23 = load i64, ptr %22, align 8
  %24 = icmp slt i64 %20, %23
  br i1 %24, label %25, label %28

25:                                               ; preds = %18
  %26 = load i32, ptr %6, align 4
  %27 = sext i32 %26 to i64
  br label %32

28:                                               ; preds = %18
  %29 = load ptr, ptr %4, align 8
  %30 = getelementptr inbounds i64, ptr %29, i64 1
  %31 = load i64, ptr %30, align 8
  br label %32

32:                                               ; preds = %28, %25
  %33 = phi i64 [ %27, %25 ], [ %31, %28 ]
  %34 = trunc i64 %33 to i32
  store i32 %34, ptr %6, align 4
  %35 = load i32, ptr %5, align 4
  %36 = sext i32 %35 to i64
  %37 = add i64 %36, 63
  %38 = lshr i64 %37, 6
  %39 = shl i64 %38, 6
  %40 = trunc i64 %39 to i32
  store i32 %40, ptr %8, align 4
  %41 = load i32, ptr %5, align 4
  %42 = sext i32 %41 to i64
  store i64 %42, ptr %9, align 8
  %43 = load i32, ptr %5, align 4
  %44 = load i32, ptr %8, align 4
  %45 = icmp slt i32 %43, %44
  br i1 %45, label %46, label %71

46:                                               ; preds = %32
  %47 = load i32, ptr %8, align 4
  %48 = load i32, ptr %6, align 4
  %49 = icmp sle i32 %47, %48
  br i1 %49, label %50, label %71

50:                                               ; preds = %46
  call void @llvm.lifetime.start.p0(i64 8, ptr %10) #12
  %51 = load i32, ptr %5, align 4
  %52 = sext i32 %51 to i64
  %53 = and i64 %52, 63
  %54 = shl i64 1, %53
  %55 = sub nsw i64 %54, 1
  %56 = xor i64 %55, -1
  store i64 %56, ptr %10, align 8
  %57 = load ptr, ptr %4, align 8
  %58 = load i64, ptr %9, align 8
  %59 = ashr i64 %58, 6
  %60 = add nsw i64 %59, 2
  %61 = getelementptr inbounds i64, ptr %57, i64 %60
  %62 = load i64, ptr %61, align 8
  %63 = load i64, ptr %10, align 8
  %64 = and i64 %62, %63
  %65 = call i64 @llvm.ctpop.i64(i64 %64)
  %66 = trunc i64 %65 to i32
  %67 = load i32, ptr %7, align 4
  %68 = add nsw i32 %67, %66
  store i32 %68, ptr %7, align 4
  %69 = load i32, ptr %8, align 4
  %70 = sext i32 %69 to i64
  store i64 %70, ptr %9, align 8
  call void @llvm.lifetime.end.p0(i64 8, ptr %10) #12
  br label %104

71:                                               ; preds = %46, %32
  %72 = load i32, ptr %8, align 4
  %73 = load i32, ptr %5, align 4
  %74 = icmp sgt i32 %72, %73
  br i1 %74, label %75, label %103

75:                                               ; preds = %71
  call void @llvm.lifetime.start.p0(i64 8, ptr %11) #12
  %76 = load i32, ptr %5, align 4
  %77 = sext i32 %76 to i64
  %78 = and i64 %77, 63
  %79 = shl i64 1, %78
  %80 = sub nsw i64 %79, 1
  %81 = xor i64 %80, -1
  store i64 %81, ptr %11, align 8
  %82 = load i32, ptr %6, align 4
  %83 = sext i32 %82 to i64
  %84 = and i64 %83, 63
  %85 = shl i64 1, %84
  %86 = sub nsw i64 %85, 1
  %87 = load i64, ptr %11, align 8
  %88 = and i64 %87, %86
  store i64 %88, ptr %11, align 8
  %89 = load ptr, ptr %4, align 8
  %90 = load i64, ptr %9, align 8
  %91 = ashr i64 %90, 6
  %92 = add nsw i64 %91, 2
  %93 = getelementptr inbounds i64, ptr %89, i64 %92
  %94 = load i64, ptr %93, align 8
  %95 = load i64, ptr %11, align 8
  %96 = and i64 %94, %95
  %97 = call i64 @llvm.ctpop.i64(i64 %96)
  %98 = trunc i64 %97 to i32
  %99 = load i32, ptr %7, align 4
  %100 = add nsw i32 %99, %98
  store i32 %100, ptr %7, align 4
  %101 = load i32, ptr %8, align 4
  %102 = sext i32 %101 to i64
  store i64 %102, ptr %9, align 8
  call void @llvm.lifetime.end.p0(i64 8, ptr %11) #12
  br label %103

103:                                              ; preds = %75, %71
  br label %104

104:                                              ; preds = %103, %50
  br label %105

105:                                              ; preds = %122, %104
  %106 = load i64, ptr %9, align 8
  %107 = add i64 %106, 64
  %108 = load i32, ptr %6, align 4
  %109 = sext i32 %108 to i64
  %110 = icmp ule i64 %107, %109
  br i1 %110, label %111, label %125

111:                                              ; preds = %105
  %112 = load ptr, ptr %4, align 8
  %113 = load i64, ptr %9, align 8
  %114 = ashr i64 %113, 6
  %115 = add nsw i64 %114, 2
  %116 = getelementptr inbounds i64, ptr %112, i64 %115
  %117 = load i64, ptr %116, align 8
  %118 = call i64 @llvm.ctpop.i64(i64 %117)
  %119 = trunc i64 %118 to i32
  %120 = load i32, ptr %7, align 4
  %121 = add nsw i32 %120, %119
  store i32 %121, ptr %7, align 4
  br label %122

122:                                              ; preds = %111
  %123 = load i64, ptr %9, align 8
  %124 = add i64 %123, 64
  store i64 %124, ptr %9, align 8
  br label %105, !llvm.loop !20

125:                                              ; preds = %105
  %126 = load i64, ptr %9, align 8
  %127 = load i32, ptr %6, align 4
  %128 = sext i32 %127 to i64
  %129 = icmp slt i64 %126, %128
  br i1 %129, label %130, label %148

130:                                              ; preds = %125
  call void @llvm.lifetime.start.p0(i64 8, ptr %12) #12
  %131 = load i32, ptr %6, align 4
  %132 = sext i32 %131 to i64
  %133 = and i64 %132, 63
  %134 = shl i64 1, %133
  %135 = sub nsw i64 %134, 1
  store i64 %135, ptr %12, align 8
  %136 = load ptr, ptr %4, align 8
  %137 = load i64, ptr %9, align 8
  %138 = ashr i64 %137, 6
  %139 = add nsw i64 %138, 2
  %140 = getelementptr inbounds i64, ptr %136, i64 %139
  %141 = load i64, ptr %140, align 8
  %142 = load i64, ptr %12, align 8
  %143 = and i64 %141, %142
  %144 = call i64 @llvm.ctpop.i64(i64 %143)
  %145 = trunc i64 %144 to i32
  %146 = load i32, ptr %7, align 4
  %147 = add nsw i32 %146, %145
  store i32 %147, ptr %7, align 4
  call void @llvm.lifetime.end.p0(i64 8, ptr %12) #12
  br label %148

148:                                              ; preds = %130, %125
  %149 = load i32, ptr %7, align 4
  call void @llvm.lifetime.end.p0(i64 8, ptr %9) #12
  call void @llvm.lifetime.end.p0(i64 4, ptr %8) #12
  call void @llvm.lifetime.end.p0(i64 4, ptr %7) #12
  ret i32 %149
}