; Function Attrs: nofree norecurse nosync nounwind memory(argmem: read) uwtable
define dso_local i32 @bit_set_count_range(ptr noundef readonly captures(none) %0, i32 noundef %1, i32 noundef %2) #3 {
  %4 = sext i32 %2 to i64
  %5 = getelementptr inbounds nuw i8, ptr %0, i64 8
  %6 = load i64, ptr %5, align 8
  %7 = tail call i64 @llvm.smin.i64(i64 %6, i64 %4)
  %8 = trunc i64 %7 to i32
  %9 = sext i32 %1 to i64
  %10 = add i32 %1, 63
  %11 = and i32 %10, -64
  %12 = icmp sge i32 %1, %11
  %.not = icmp sgt i32 %11, %8
  %or.cond = select i1 %12, i1 true, i1 %.not
  br i1 %or.cond, label %23, label %13

13:                                               ; preds = %3
  %14 = and i64 %9, 63
  %notmask48 = shl nsw i64 -1, %14
  %15 = ashr i64 %9, 6
  %16 = getelementptr i64, ptr %0, i64 %15
  %17 = getelementptr i8, ptr %16, i64 16
  %18 = load i64, ptr %17, align 8
  %19 = and i64 %18, %notmask48
  %20 = tail call range(i64 0, 65) i64 @llvm.ctpop.i64(i64 %19)
  %21 = trunc nuw nsw i64 %20 to i32
  %22 = sext i32 %11 to i64
  br label %37

23:                                               ; preds = %3
  br i1 %12, label %37, label %24

24:                                               ; preds = %23
  %25 = and i64 %9, 63
  %notmask = shl nsw i64 -1, %25
  %26 = and i64 %7, 63
  %notmask47 = shl nsw i64 -1, %26
  %27 = xor i64 %notmask47, -1
  %28 = and i64 %notmask, %27
  %29 = ashr i64 %9, 6
  %30 = getelementptr i64, ptr %0, i64 %29
  %31 = getelementptr i8, ptr %30, i64 16
  %32 = load i64, ptr %31, align 8
  %33 = and i64 %28, %32
  %34 = tail call range(i64 0, 64) i64 @llvm.ctpop.i64(i64 %33)
  %35 = trunc nuw nsw i64 %34 to i32
  %36 = sext i32 %11 to i64
  br label %37

37:                                               ; preds = %23, %24, %13
  %.039 = phi i64 [ %22, %13 ], [ %36, %24 ], [ %9, %23 ]
  %.0 = phi i32 [ %21, %13 ], [ %35, %24 ], [ 0, %23 ]
  %sext = shl i64 %7, 32
  %38 = ashr exact i64 %sext, 32
  %invariant.gep = getelementptr i8, ptr %0, i64 16
  %39 = add nsw i64 %.039, 64
  %.not4952 = icmp ugt i64 %39, %38
  br i1 %.not4952, label %._crit_edge, label %.lr.ph

.lr.ph:                                           ; preds = %37, %.lr.ph
  %40 = phi i64 [ %46, %.lr.ph ], [ %39, %37 ]
  %.154 = phi i32 [ %45, %.lr.ph ], [ %.0, %37 ]
  %.14053 = phi i64 [ %40, %.lr.ph ], [ %.039, %37 ]
  %41 = ashr i64 %.14053, 6
  %gep = getelementptr i64, ptr %invariant.gep, i64 %41
  %42 = load i64, ptr %gep, align 8
  %43 = tail call range(i64 0, 65) i64 @llvm.ctpop.i64(i64 %42)
  %44 = trunc nuw nsw i64 %43 to i32
  %45 = add nsw i32 %.154, %44
  %46 = add i64 %40, 64
  %.not49 = icmp ugt i64 %46, %38
  br i1 %.not49, label %._crit_edge, label %.lr.ph, !llvm.loop !21

._crit_edge:                                      ; preds = %.lr.ph, %37
  %.140.lcssa = phi i64 [ %.039, %37 ], [ %40, %.lr.ph ]
  %.1.lcssa = phi i32 [ %.0, %37 ], [ %45, %.lr.ph ]
  %47 = icmp slt i64 %.140.lcssa, %38
  br i1 %47, label %48, label %59

48:                                               ; preds = %._crit_edge
  %49 = and i64 %7, 63
  %notmask50 = shl nsw i64 -1, %49
  %50 = xor i64 %notmask50, -1
  %51 = ashr i64 %.140.lcssa, 6
  %52 = getelementptr i64, ptr %0, i64 %51
  %53 = getelementptr i8, ptr %52, i64 16
  %54 = load i64, ptr %53, align 8
  %55 = and i64 %54, %50
  %56 = tail call range(i64 0, 64) i64 @llvm.ctpop.i64(i64 %55)
  %57 = trunc nuw nsw i64 %56 to i32
  %58 = add nsw i32 %.1.lcssa, %57
  br label %59

59:                                               ; preds = %48, %._crit_edge
  %.2 = phi i32 [ %58, %48 ], [ %.1.lcssa, %._crit_edge ]
  ret i32 %.2
}